MODULE mac x86_64 DFB8E43AF2423D73A453AEB6A777EF750 crash_macos
FILE 0 /Applications/Xcode.app/Contents/Developer/Toolchains/XcodeDefault.xctoolchain/usr/bin/../include/c++/v1/__functional_base
FILE 1 /Applications/Xcode.app/Contents/Developer/Toolchains/XcodeDefault.xctoolchain/usr/bin/../include/c++/v1/__split_buffer
FILE 2 /Applications/Xcode.app/Contents/Developer/Toolchains/XcodeDefault.xctoolchain/usr/bin/../include/c++/v1/algorithm
FILE 3 /Applications/Xcode.app/Contents/Developer/Toolchains/XcodeDefault.xctoolchain/usr/bin/../include/c++/v1/cstddef
FILE 4 /Applications/Xcode.app/Contents/Developer/Toolchains/XcodeDefault.xctoolchain/usr/bin/../include/c++/v1/exception
FILE 5 /Applications/Xcode.app/Contents/Developer/Toolchains/XcodeDefault.xctoolchain/usr/bin/../include/c++/v1/iterator
FILE 6 /Applications/Xcode.app/Contents/Developer/Toolchains/XcodeDefault.xctoolchain/usr/bin/../include/c++/v1/memory
FILE 7 /Applications/Xcode.app/Contents/Developer/Toolchains/XcodeDefault.xctoolchain/usr/bin/../include/c++/v1/new
FILE 8 /Applications/Xcode.app/Contents/Developer/Toolchains/XcodeDefault.xctoolchain/usr/bin/../include/c++/v1/string
FILE 9 /Applications/Xcode.app/Contents/Developer/Toolchains/XcodeDefault.xctoolchain/usr/bin/../include/c++/v1/type_traits
FILE 10 /Applications/Xcode.app/Contents/Developer/Toolchains/XcodeDefault.xctoolchain/usr/bin/../include/c++/v1/utility
FILE 11 /Applications/Xcode.app/Contents/Developer/Toolchains/XcodeDefault.xctoolchain/usr/bin/../include/c++/v1/vector
FILE 12 /System/Library/Frameworks/CoreFoundation.framework/Headers/CFBase.h
FILE 13 /System/Library/Frameworks/CoreFoundation.framework/Headers/CFByteOrder.h
FILE 14 /Users/jauer/Coding/breakpad/examples/../examples/crash_macos.cpp
FILE 15 /Users/jauer/Coding/breakpad/examples/../third_party/breakpad/client/mac/crash_generation/crash_generation_client.cc
FILE 16 /Users/jauer/Coding/breakpad/examples/../third_party/breakpad/client/mac/crash_generation/crash_generation_client.h
FILE 17 /Users/jauer/Coding/breakpad/examples/../third_party/breakpad/client/mac/handler/breakpad_nlist_64.cc
FILE 18 /Users/jauer/Coding/breakpad/examples/../third_party/breakpad/client/mac/handler/dynamic_images.cc
FILE 19 /Users/jauer/Coding/breakpad/examples/../third_party/breakpad/client/mac/handler/dynamic_images.h
FILE 20 /Users/jauer/Coding/breakpad/examples/../third_party/breakpad/client/mac/handler/exception_handler.cc
FILE 21 /Users/jauer/Coding/breakpad/examples/../third_party/breakpad/client/mac/handler/exception_handler.h
FILE 22 /Users/jauer/Coding/breakpad/examples/../third_party/breakpad/client/mac/handler/minidump_generator.cc
FILE 23 /Users/jauer/Coding/breakpad/examples/../third_party/breakpad/client/mac/handler/minidump_generator.h
FILE 24 /Users/jauer/Coding/breakpad/examples/../third_party/breakpad/client/minidump_file_writer-inl.h
FILE 25 /Users/jauer/Coding/breakpad/examples/../third_party/breakpad/client/minidump_file_writer.cc
FILE 26 /Users/jauer/Coding/breakpad/examples/../third_party/breakpad/client/minidump_file_writer.h
FILE 27 /Users/jauer/Coding/breakpad/examples/../third_party/breakpad/common/convert_UTF.c
FILE 28 /Users/jauer/Coding/breakpad/examples/../third_party/breakpad/common/mac/MachIPC.h
FILE 29 /Users/jauer/Coding/breakpad/examples/../third_party/breakpad/common/mac/MachIPC.mm
FILE 30 /Users/jauer/Coding/breakpad/examples/../third_party/breakpad/common/mac/bootstrap_compat.cc
FILE 31 /Users/jauer/Coding/breakpad/examples/../third_party/breakpad/common/mac/byteswap.h
FILE 32 /Users/jauer/Coding/breakpad/examples/../third_party/breakpad/common/mac/file_id.cc
FILE 33 /Users/jauer/Coding/breakpad/examples/../third_party/breakpad/common/mac/file_id.h
FILE 34 /Users/jauer/Coding/breakpad/examples/../third_party/breakpad/common/mac/macho_id.cc
FILE 35 /Users/jauer/Coding/breakpad/examples/../third_party/breakpad/common/mac/macho_utilities.cc
FILE 36 /Users/jauer/Coding/breakpad/examples/../third_party/breakpad/common/mac/macho_walker.cc
FILE 37 /Users/jauer/Coding/breakpad/examples/../third_party/breakpad/common/mac/scoped_task_suspend-inl.h
FILE 38 /Users/jauer/Coding/breakpad/examples/../third_party/breakpad/common/mac/string_utilities.cc
FILE 39 /Users/jauer/Coding/breakpad/examples/../third_party/breakpad/common/md5.cc
FILE 40 /Users/jauer/Coding/breakpad/examples/../third_party/breakpad/common/memory.h
FILE 41 /Users/jauer/Coding/breakpad/examples/../third_party/breakpad/common/scoped_ptr.h
FILE 42 /Users/jauer/Coding/breakpad/examples/../third_party/breakpad/common/string_conversion.cc
FILE 43 /Users/jauer/Coding/breakpad/examples/../third_party/breakpad/google_breakpad/common/minidump_size.h
FILE 44 /usr/include/architecture/byte_order.h
FILE 45 /usr/include/libkern/i386/_OSByteOrder.h
FILE 46 /usr/include/signal.h
STACK CFI INIT 1990 f .cfa: $rsp 8 + .ra: .cfa -8 + ^
STACK CFI 1991 .cfa: $rsp 16 +
STACK CFI INIT 19a0 8 .cfa: $rsp 8 + .ra: .cfa -8 + ^
STACK CFI 19a1 .cfa: $rsp 16 +
STACK CFI INIT 19b0 18 .cfa: $rsp 8 + .ra: .cfa -8 + ^
STACK CFI INIT 19d0 10 .cfa: $rsp 8 + .ra: .cfa -8 + ^
STACK CFI 19d1 .cfa: $rsp 16 +
STACK CFI INIT 19e0 24 .cfa: $rsp 8 + .ra: .cfa -8 + ^
STACK CFI INIT 1a10 10 .cfa: $rsp 8 + .ra: .cfa -8 + ^
STACK CFI 1a11 .cfa: $rsp 16 +
STACK CFI INIT 1ae0 10 .cfa: $rsp 8 + .ra: .cfa -8 + ^
STACK CFI 1ae1 .cfa: $rsp 16 +
STACK CFI INIT 2710 f .cfa: $rsp 8 + .ra: .cfa -8 + ^
STACK CFI INIT 2b10 6 .cfa: $rsp 8 + .ra: .cfa -8 + ^
STACK CFI INIT 2c00 12 .cfa: $rsp 8 + .ra: .cfa -8 + ^
STACK CFI INIT 2c20 10 .cfa: $rsp 8 + .ra: .cfa -8 + ^
STACK CFI 2c21 .cfa: $rsp 16 +
STACK CFI INIT 3040 d .cfa: $rsp 8 + .ra: .cfa -8 + ^
STACK CFI INIT 3050 10 .cfa: $rsp 8 + .ra: .cfa -8 + ^
STACK CFI 3051 .cfa: $rsp 16 +
STACK CFI INIT 3060 46 .cfa: $rsp 8 + .ra: .cfa -8 + ^
STACK CFI INIT 30b0 10 .cfa: $rsp 8 + .ra: .cfa -8 + ^
STACK CFI 30b1 .cfa: $rsp 16 +
STACK CFI INIT 3410 23 .cfa: $rsp 8 + .ra: .cfa -8 + ^
STACK CFI 3411 .cfa: $rsp 16 +
STACK CFI INIT 3890 33 .cfa: $rsp 8 + .ra: .cfa -8 + ^
STACK CFI INIT 38d0 33 .cfa: $rsp 8 + .ra: .cfa -8 + ^
STACK CFI INIT 3e50 8 .cfa: $rsp 8 + .ra: .cfa -8 + ^
STACK CFI INIT 3e60 23 .cfa: $rsp 8 + .ra: .cfa -8 + ^
STACK CFI 3e61 .cfa: $rsp 16 +
STACK CFI INIT 6f30 90 .cfa: $rsp 8 + .ra: .cfa -8 + ^
STACK CFI INIT 72c0 10 .cfa: $rsp 8 + .ra: .cfa -8 + ^
STACK CFI 72c1 .cfa: $rsp 16 +
STACK CFI INIT 7300 6 .cfa: $rsp 8 + .ra: .cfa -8 + ^
STACK CFI INIT 7310 10 .cfa: $rsp 8 + .ra: .cfa -8 + ^
STACK CFI INIT 7970 1a .cfa: $rsp 8 + .ra: .cfa -8 + ^
STACK CFI INIT 7c70 f .cfa: $rsp 8 + .ra: .cfa -8 + ^
STACK CFI INIT 8450 1d .cfa: $rsp 8 + .ra: .cfa -8 + ^
STACK CFI 8451 .cfa: $rsp 16 +
STACK CFI INIT 8cf0 10 .cfa: $rsp 8 + .ra: .cfa -8 + ^
STACK CFI 8cf1 .cfa: $rsp 16 +
STACK CFI INIT 92d0 1a .cfa: $rsp 8 + .ra: .cfa -8 + ^
STACK CFI INIT 9320 1b .cfa: $rsp 8 + .ra: .cfa -8 + ^
STACK CFI INIT 9d50 6 .cfa: $rsp 8 + .ra: .cfa -8 + ^
STACK CFI INIT a080 10 .cfa: $rsp 8 + .ra: .cfa -8 + ^
STACK CFI INIT a190 18 .cfa: $rsp 8 + .ra: .cfa -8 + ^
STACK CFI INIT d260 10 .cfa: $rsp 8 + .ra: .cfa -8 + ^
STACK CFI d261 .cfa: $rsp 16 +
STACK CFI INIT d270 10 .cfa: $rsp 8 + .ra: .cfa -8 + ^
STACK CFI d271 .cfa: $rsp 16 +
STACK CFI INIT da40 10 .cfa: $rsp 8 + .ra: .cfa -8 + ^
STACK CFI da41 .cfa: $rsp 16 +
STACK CFI INIT e790 38 .cfa: $rsp 8 + .ra: .cfa -8 + ^
STACK CFI INIT e7d0 10 .cfa: $rsp 8 + .ra: .cfa -8 + ^
STACK CFI e7d1 .cfa: $rsp 16 +
STACK CFI INIT ee50 24 .cfa: $rsp 8 + .ra: .cfa -8 + ^
STACK CFI ee51 .cfa: $rsp 16 +
STACK CFI INIT eee0 10 .cfa: $rsp 8 + .ra: .cfa -8 + ^
STACK CFI eee1 .cfa: $rsp 16 +
STACK CFI INIT f910 e .cfa: $rsp 8 + .ra: .cfa -8 + ^
STACK CFI INIT f920 30 .cfa: $rsp 8 + .ra: .cfa -8 + ^
STACK CFI INIT fa60 e .cfa: $rsp 8 + .ra: .cfa -8 + ^
STACK CFI INIT fa70 11 .cfa: $rsp 8 + .ra: .cfa -8 + ^
STACK CFI INIT fad0 1e .cfa: $rsp 8 + .ra: .cfa -8 + ^
STACK CFI INIT faf0 18 .cfa: $rsp 8 + .ra: .cfa -8 + ^
STACK CFI INIT fb10 18 .cfa: $rsp 8 + .ra: .cfa -8 + ^
STACK CFI INIT fd40 6 .cfa: $rsp 8 + .ra: .cfa -8 + ^
STACK CFI INIT fd50 10 .cfa: $rsp 8 + .ra: .cfa -8 + ^
STACK CFI fd51 .cfa: $rsp 16 +
STACK CFI INIT 10260 10 .cfa: $rsp 8 + .ra: .cfa -8 + ^
STACK CFI 10261 .cfa: $rsp 16 +
STACK CFI INIT 10270 10 .cfa: $rsp 8 + .ra: .cfa -8 + ^
STACK CFI 10271 .cfa: $rsp 16 +
STACK CFI INIT 10280 10 .cfa: $rsp 8 + .ra: .cfa -8 + ^
STACK CFI 10281 .cfa: $rsp 16 +
STACK CFI INIT 104c0 e .cfa: $rsp 8 + .ra: .cfa -8 + ^
STACK CFI INIT 10630 10 .cfa: $rsp 8 + .ra: .cfa -8 + ^
STACK CFI 10631 .cfa: $rsp 16 +
STACK CFI INIT 10640 10 .cfa: $rsp 8 + .ra: .cfa -8 + ^
STACK CFI 10641 .cfa: $rsp 16 +
STACK CFI INIT 106a0 19 .cfa: $rsp 8 + .ra: .cfa -8 + ^
STACK CFI INIT 12ea0 12 .cfa: $rsp 8 + .ra: .cfa -8 + ^
STACK CFI INIT 12ec0 e .cfa: $rsp 8 + .ra: .cfa -8 + ^
STACK CFI INIT 12fa0 10 .cfa: $rsp 8 + .ra: .cfa -8 + ^
STACK CFI 12fa1 .cfa: $rsp 16 +
STACK CFI INIT 12fb0 10 .cfa: $rsp 8 + .ra: .cfa -8 + ^
STACK CFI 12fb1 .cfa: $rsp 16 +
STACK CFI INIT 13700 10 .cfa: $rsp 8 + .ra: .cfa -8 + ^
STACK CFI 13701 .cfa: $rsp 16 +
STACK CFI INIT 13710 21 .cfa: $rsp 8 + .ra: .cfa -8 + ^
STACK CFI INIT 13fd0 1d .cfa: $rsp 8 + .ra: .cfa -8 + ^
STACK CFI INIT 13ff0 21 .cfa: $rsp 8 + .ra: .cfa -8 + ^
STACK CFI INIT 14090 12 .cfa: $rsp 8 + .ra: .cfa -8 + ^
STACK CFI INIT 140b0 10 .cfa: $rsp 8 + .ra: .cfa -8 + ^
STACK CFI 140b1 .cfa: $rsp 16 +
STACK CFI INIT 14130 12 .cfa: $rsp 8 + .ra: .cfa -8 + ^
STACK CFI INIT 14150 10 .cfa: $rsp 8 + .ra: .cfa -8 + ^
STACK CFI 14151 .cfa: $rsp 16 +
STACK CFI INIT 146c0 12 .cfa: $rsp 8 + .ra: .cfa -8 + ^
STACK CFI INIT 147a0 10 .cfa: $rsp 8 + .ra: .cfa -8 + ^
STACK CFI 147a1 .cfa: $rsp 16 +
STACK CFI INIT 14890 12 .cfa: $rsp 8 + .ra: .cfa -8 + ^
STACK CFI INIT 14970 10 .cfa: $rsp 8 + .ra: .cfa -8 + ^
STACK CFI 14971 .cfa: $rsp 16 +
STACK CFI INIT 14c80 12 .cfa: $rsp 8 + .ra: .cfa -8 + ^
STACK CFI INIT 14ca0 10 .cfa: $rsp 8 + .ra: .cfa -8 + ^
STACK CFI 14ca1 .cfa: $rsp 16 +
STACK CFI INIT 14d20 12 .cfa: $rsp 8 + .ra: .cfa -8 + ^
STACK CFI INIT 14d40 10 .cfa: $rsp 8 + .ra: .cfa -8 + ^
STACK CFI 14d41 .cfa: $rsp 16 +
STACK CFI INIT 156a0 f .cfa: $rsp 8 + .ra: .cfa -8 + ^
STACK CFI INIT 156b0 f .cfa: $rsp 8 + .ra: .cfa -8 + ^
STACK CFI INIT 156c0 f .cfa: $rsp 8 + .ra: .cfa -8 + ^
STACK CFI INIT 157a0 e .cfa: $rsp 8 + .ra: .cfa -8 + ^
STACK CFI INIT 15cb0 e .cfa: $rsp 8 + .ra: .cfa -8 + ^
STACK CFI INIT 15e60 12 .cfa: $rsp 8 + .ra: .cfa -8 + ^
STACK CFI INIT 15e80 10 .cfa: $rsp 8 + .ra: .cfa -8 + ^
STACK CFI 15e81 .cfa: $rsp 16 +
STACK CFI INIT 15e90 10 .cfa: $rsp 8 + .ra: .cfa -8 + ^
STACK CFI 15e91 .cfa: $rsp 16 +
STACK CFI INIT 15ed0 2b .cfa: $rsp 8 + .ra: .cfa -8 + ^
STACK CFI INIT 15fc0 12 .cfa: $rsp 8 + .ra: .cfa -8 + ^
STACK CFI INIT 160a0 10 .cfa: $rsp 8 + .ra: .cfa -8 + ^
STACK CFI 160a1 .cfa: $rsp 16 +
STACK CFI INIT 16120 12 .cfa: $rsp 8 + .ra: .cfa -8 + ^
STACK CFI INIT 16140 10 .cfa: $rsp 8 + .ra: .cfa -8 + ^
STACK CFI 16141 .cfa: $rsp 16 +
STACK CFI INIT 161c0 12 .cfa: $rsp 8 + .ra: .cfa -8 + ^
STACK CFI INIT 161e0 10 .cfa: $rsp 8 + .ra: .cfa -8 + ^
STACK CFI 161e1 .cfa: $rsp 16 +
STACK CFI INIT 16240 10 .cfa: $rsp 8 + .ra: .cfa -8 + ^
STACK CFI 16241 .cfa: $rsp 16 +
STACK CFI INIT 16250 10 .cfa: $rsp 8 + .ra: .cfa -8 + ^
STACK CFI 16251 .cfa: $rsp 16 +
STACK CFI INIT 16460 10 .cfa: $rsp 8 + .ra: .cfa -8 + ^
STACK CFI INIT 16470 10 .cfa: $rsp 8 + .ra: .cfa -8 + ^
STACK CFI 16471 .cfa: $rsp 16 +
STACK CFI INIT 16630 e .cfa: $rsp 8 + .ra: .cfa -8 + ^
STACK CFI INIT 16640 10 .cfa: $rsp 8 + .ra: .cfa -8 + ^
STACK CFI 16641 .cfa: $rsp 16 +
STACK CFI INIT 16650 10 .cfa: $rsp 8 + .ra: .cfa -8 + ^
STACK CFI 16651 .cfa: $rsp 16 +
STACK CFI INIT 166d0 10 .cfa: $rsp 8 + .ra: .cfa -8 + ^
STACK CFI 166d1 .cfa: $rsp 16 +
STACK CFI INIT 16940 e .cfa: $rsp 8 + .ra: .cfa -8 + ^
STACK CFI INIT 16950 10 .cfa: $rsp 8 + .ra: .cfa -8 + ^
STACK CFI 16951 .cfa: $rsp 16 +
STACK CFI INIT 16b80 6 .cfa: $rsp 8 + .ra: .cfa -8 + ^
STACK CFI INIT 170d0 30 .cfa: $rsp 8 + .ra: .cfa -8 + ^
STACK CFI INIT 17460 10 .cfa: $rsp 8 + .ra: .cfa -8 + ^
STACK CFI 17461 .cfa: $rsp 16 +
STACK CFI INIT 17ce0 1a .cfa: $rsp 8 + .ra: .cfa -8 + ^
STACK CFI INIT 17f80 6 .cfa: $rsp 8 + .ra: .cfa -8 + ^
STACK CFI INIT 18060 6 .cfa: $rsp 8 + .ra: .cfa -8 + ^
STACK CFI INIT 18160 6 .cfa: $rsp 8 + .ra: .cfa -8 + ^
STACK CFI INIT 18260 6 .cfa: $rsp 8 + .ra: .cfa -8 + ^
STACK CFI INIT 182a0 6 .cfa: $rsp 8 + .ra: .cfa -8 + ^
STACK CFI INIT 185f0 10 .cfa: $rsp 8 + .ra: .cfa -8 + ^
STACK CFI INIT 187d0 6 .cfa: $rsp 8 + .ra: .cfa -8 + ^
STACK CFI INIT 188b0 6 .cfa: $rsp 8 + .ra: .cfa -8 + ^
STACK CFI INIT 189b0 6 .cfa: $rsp 8 + .ra: .cfa -8 + ^
STACK CFI INIT 18a90 6 .cfa: $rsp 8 + .ra: .cfa -8 + ^
STACK CFI INIT 18b70 6 .cfa: $rsp 8 + .ra: .cfa -8 + ^
STACK CFI INIT 18c70 6 .cfa: $rsp 8 + .ra: .cfa -8 + ^
STACK CFI INIT 18d70 6 .cfa: $rsp 8 + .ra: .cfa -8 + ^
STACK CFI INIT 18e50 6 .cfa: $rsp 8 + .ra: .cfa -8 + ^
STACK CFI INIT 19d40 d .cfa: $rsp 8 + .ra: .cfa -8 + ^
STACK CFI INIT 1aa40 208 .cfa: $rsp 8 + .ra: .cfa -8 + ^
STACK CFI INIT 1ac50 209 .cfa: $rsp 8 + .ra: .cfa -8 + ^
STACK CFI INIT 1ae60 3dd .cfa: $rsp 8 + .ra: .cfa -8 + ^
STACK CFI INIT 1b2c0 248 .cfa: $rsp 8 + .ra: .cfa -8 + ^
STACK CFI INIT 1b9c0 2f1 .cfa: $rsp 8 + .ra: .cfa -8 + ^
STACK CFI INIT 1c030 4d .cfa: $rsp 8 + .ra: .cfa -8 + ^
STACK CFI INIT 1c230 1220 .cfa: $rsp 8 + .ra: .cfa -8 + ^
STACK CFI INIT 1f0f0 e .cfa: $rsp 8 + .ra: .cfa -8 + ^
STACK CFI INIT 1f100 27 .cfa: $rsp 8 + .ra: .cfa -8 + ^
STACK CFI INIT 1f130 10 .cfa: $rsp 8 + .ra: .cfa -8 + ^
STACK CFI 1f131 .cfa: $rsp 16 +
STACK CFI INIT 1f260 1a .cfa: $rsp 8 + .ra: .cfa -8 + ^
STACK CFI INIT 1f4e0 6 .cfa: $rsp 8 + .ra: .cfa -8 + ^
STACK CFI INIT 1f530 a7 .cfa: $rsp 8 + .ra: .cfa -8 + ^
STACK CFI INIT 1fa00 10 .cfa: $rsp 8 + .ra: .cfa -8 + ^
STACK CFI 1fa01 .cfa: $rsp 16 +
STACK CFI INIT 1fa10 10 .cfa: $rsp 8 + .ra: .cfa -8 + ^
STACK CFI INIT 206e0 92 .cfa: $rsp 8 + .ra: .cfa -8 + ^
STACK CFI INIT 20a90 18 .cfa: $rsp 8 + .ra: .cfa -8 + ^
STACK CFI INIT 20df0 198 .cfa: $rsp 8 + .ra: .cfa -8 + ^
STACK CFI INIT 21210 6 .cfa: $rsp 8 + .ra: .cfa -8 + ^
STACK CFI INIT 21220 10 .cfa: $rsp 8 + .ra: .cfa -8 + ^
STACK CFI 21221 .cfa: $rsp 16 +
STACK CFI INIT 21230 51a .cfa: $rsp 8 + .ra: .cfa -8 + ^
STACK CFI INIT 224a0 2b .cfa: $rsp 8 + .ra: .cfa -8 + ^
STACK CFI 224a1 .cfa: $rsp 16 +
STACK CFI INIT 224d0 10 .cfa: $rsp 8 + .ra: .cfa -8 + ^
STACK CFI 224d1 .cfa: $rsp 16 +
STACK CFI INIT 224e0 2b .cfa: $rsp 8 + .ra: .cfa -8 + ^
STACK CFI 224e1 .cfa: $rsp 16 +
STACK CFI INIT 22510 77 .cfa: $rsp 8 + .ra: .cfa -8 + ^
STACK CFI 22511 .cfa: $rsp 16 +
STACK CFI INIT 22590 c3 .cfa: $rsp 8 + .ra: .cfa -8 + ^
STACK CFI 22591 .cfa: $rsp 16 +
STACK CFI INIT 22660 10 .cfa: $rsp 8 + .ra: .cfa -8 + ^
STACK CFI 22661 .cfa: $rsp 16 +
STACK CFI INIT 22670 cb .cfa: $rsp 8 + .ra: .cfa -8 + ^
STACK CFI 22671 .cfa: $rsp 16 +
STACK CFI INIT 22740 10 .cfa: $rsp 8 + .ra: .cfa -8 + ^
STACK CFI 22741 .cfa: $rsp 16 +
STACK CFI INIT 22750 2b .cfa: $rsp 8 + .ra: .cfa -8 + ^
STACK CFI 22751 .cfa: $rsp 16 +
STACK CFI INIT 22890 8a .cfa: $rsp 8 + .ra: .cfa -8 + ^
STACK CFI 22891 .cfa: $rsp 16 +
STACK CFI INIT 22920 9d .cfa: $rsp 8 + .ra: .cfa -8 + ^
STACK CFI 22921 .cfa: $rsp 16 +
STACK CFI INIT 22d20 d .cfa: $rsp 8 + .ra: .cfa -8 + ^
STACK CFI INIT 22d30 11 .cfa: $rsp 8 + .ra: .cfa -8 + ^
STACK CFI INIT 22e10 61 .cfa: $rsp 8 + .ra: .cfa -8 + ^
STACK CFI INIT 22f00 10 .cfa: $rsp 8 + .ra: .cfa -8 + ^
STACK CFI 22f01 .cfa: $rsp 16 +
STACK CFI INIT 23670 75 .cfa: $rsp 8 + .ra: .cfa -8 + ^
STACK CFI INIT 236f0 6 .cfa: $rsp 8 + .ra: .cfa -8 + ^
STACK CFI INIT 23c20 e .cfa: $rsp 8 + .ra: .cfa -8 + ^
STACK CFI INIT 23ce0 10 .cfa: $rsp 8 + .ra: .cfa -8 + ^
STACK CFI 23ce1 .cfa: $rsp 16 +
STACK CFI INIT 24f50 18 .cfa: $rsp 8 + .ra: .cfa -8 + ^
STACK CFI INIT 25010 d .cfa: $rsp 8 + .ra: .cfa -8 + ^
STACK CFI INIT 250e0 23 .cfa: $rsp 8 + .ra: .cfa -8 + ^
STACK CFI INIT 25190 19 .cfa: $rsp 8 + .ra: .cfa -8 + ^
STACK CFI 25191 .cfa: $rsp 16 +
STACK CFI INIT 251b0 49 .cfa: $rsp 8 + .ra: .cfa -8 + ^
STACK CFI INIT 253d0 13 .cfa: $rsp 8 + .ra: .cfa -8 + ^
STACK CFI 253d1 .cfa: $rsp 16 +
STACK CFI INIT 253f0 e .cfa: $rsp 8 + .ra: .cfa -8 + ^
STACK CFI INIT 25400 3c .cfa: $rsp 8 + .ra: .cfa -8 + ^
STACK CFI INIT 25600 d .cfa: $rsp 8 + .ra: .cfa -8 + ^
STACK CFI INIT 25790 10 .cfa: $rsp 8 + .ra: .cfa -8 + ^
STACK CFI 25791 .cfa: $rsp 16 +
STACK CFI INIT 257a0 1c .cfa: $rsp 8 + .ra: .cfa -8 + ^
STACK CFI INIT 25820 10 .cfa: $rsp 8 + .ra: .cfa -8 + ^
STACK CFI 25821 .cfa: $rsp 16 +
STACK CFI INIT 259e0 1c .cfa: $rsp 8 + .ra: .cfa -8 + ^
