MODULE mac x86_64 24CF2A4F38763BCABDEF7542A7A635400 hello_macos
FUNC f60 46 0 main
FUNC fb0 42 0 std::__1::basic_ostream<char, std::__1::char_traits<char> >& std::__1::operator<<<std::__1::char_traits<char> >(std::__1::basic_ostream<char, std::__1::char_traits<char> >&, char const*)
FUNC 1000 101 0 std::__1::basic_ostream<char, std::__1::char_traits<char> >& std::__1::endl<char, std::__1::char_traits<char> >(std::__1::basic_ostream<char, std::__1::char_traits<char> >&)
FUNC 1110 470 0 std::__1::basic_ostream<char, std::__1::char_traits<char> >& std::__1::__put_character_sequence<char, std::__1::char_traits<char> >(std::__1::basic_ostream<char, std::__1::char_traits<char> >&, char const*, unsigned long)
FUNC 1580 1b 0 std::__1::char_traits<char>::length(char const*)
FUNC 15a0 6b7 0 std::__1::ostreambuf_iterator<char, std::__1::char_traits<char> > std::__1::__pad_and_output<char, std::__1::char_traits<char> >(std::__1::ostreambuf_iterator<char, std::__1::char_traits<char> >, char const*, char const*, char const*, std::__1::ios_base&, char)
FUNC 1c70 1a 0 std::__1::char_traits<char>::eq_int_type(int, int)
FUNC 1c90 b 0 std::__1::char_traits<char>::eof()
PUBLIC 0 0 _mh_execute_header
PUBLIC 1c60 0 __clang_call_terminate
PUBLIC 1ddc 0 GCC_except_table2
PUBLIC 1e1c 0 GCC_except_table3
PUBLIC 1ecc 0 GCC_except_table5
STACK CFI INIT 1c60 f .cfa: $rsp 8 + .ra: .cfa -8 + ^
STACK CFI 1c61 .cfa: $rsp 16 +
